target datalayout = "e-m:e-p270:32:32-p271:32:32-p272:64:64-i64:64-i128:128-f80:128-n8:16:32:64-S128"
target triple = "x86_64-pc-linux-gnu"

; Function Attrs: mustprogress uwtable
define internal noundef zeroext i1 @_ZN12_GLOBAL__N_121_isAlphaNumericStringEPKci(ptr noundef %0, i32 noundef %1) #1 {
  %3 = alloca i1, align 1
  %4 = alloca ptr, align 8
  %5 = alloca i32, align 4
  %6 = alloca i32, align 4
  %7 = alloca i32, align 4
  store ptr %0, ptr %4, align 8, !tbaa !17
  store i32 %1, ptr %5, align 4, !tbaa !14
  call void @llvm.lifetime.start.p0(i64 4, ptr %6) #12
  store i32 0, ptr %6, align 4, !tbaa !14
  br label %8

8:                                                ; preds = %29, %2
  %9 = load i32, ptr %6, align 4, !tbaa !14
  %10 = load i32, ptr %5, align 4, !tbaa !14
  %11 = icmp slt i32 %9, %10
  br i1 %11, label %12, label %32

12:                                               ; preds = %8
  %13 = load ptr, ptr %4, align 8, !tbaa !17
  %14 = load i32, ptr %6, align 4, !tbaa !14
  %15 = sext i32 %14 to i64
  %16 = getelementptr inbounds i8, ptr %13, i64 %15
  %17 = load i8, ptr %16, align 1, !tbaa !23
  %18 = call noundef signext i8 @uprv_isASCIILetter_77(i8 noundef signext %17)
  %19 = icmp ne i8 %18, 0
  br i1 %19, label %28, label %20

20:                                               ; preds = %12
  %21 = load ptr, ptr %4, align 8, !tbaa !17
  %22 = load i32, ptr %6, align 4, !tbaa !14
  %23 = sext i32 %22 to i64
  %24 = getelementptr inbounds i8, ptr %21, i64 %23
  %25 = load i8, ptr %24, align 1, !tbaa !23
  %26 = call noundef zeroext i1 @_ZN12_GLOBAL__N_19ISNUMERICEc(i8 noundef signext %25)
  br i1 %26, label %28, label %27

27:                                               ; preds = %20
  store i1 false, ptr %3, align 1
  store i32 1, ptr %7, align 4
  br label %33

28:                                               ; preds = %20, %12
  br label %29

29:                                               ; preds = %28
  %30 = load i32, ptr %6, align 4, !tbaa !14
  %31 = add nsw i32 %30, 1
  store i32 %31, ptr %6, align 4, !tbaa !14
  br label %8, !llvm.loop !130

32:                                               ; preds = %8
  store i1 true, ptr %3, align 1
  store i32 1, ptr %7, align 4
  br label %33

33:                                               ; preds = %32, %27
  call void @llvm.lifetime.end.p0(i64 4, ptr %6) #12
  %34 = load i1, ptr %3, align 1
  ret i1 %34
}

; Function Attrs: inlinehint mustprogress nounwind uwtable
define internal noundef zeroext i1 @_ZN12_GLOBAL__N_19ISNUMERICEc(i8 noundef signext %0) #2 {
  %2 = alloca i8, align 1
  store i8 %0, ptr %2, align 1, !tbaa !23
  %3 = load i8, ptr %2, align 1, !tbaa !23
  %4 = sext i8 %3 to i32
  %5 = icmp sge i32 %4, 48
  br i1 %5, label %6, label %10

6:                                                ; preds = %1
  %7 = load i8, ptr %2, align 1, !tbaa !23
  %8 = sext i8 %7 to i32
  %9 = icmp sle i32 %8, 57
  br label %10

10:                                               ; preds = %6, %1
  %11 = phi i1 [ false, %1 ], [ %9, %6 ]
  ret i1 %11
}

; Function Attrs: mustprogress uwtable
define internal noundef zeroext i1 @_ZN12_GLOBAL__N_134_isAlphaNumericStringLimitedLengthEPKciii(ptr noundef %0, i32 noundef %1, i32 noundef %2, i32 noundef %3) #1 {
  %5 = alloca i1, align 1
  %6 = alloca ptr, align 8
  %7 = alloca i32, align 4
  %8 = alloca i32, align 4
  %9 = alloca i32, align 4
  store ptr %0, ptr %6, align 8, !tbaa !17
  store i32 %1, ptr %7, align 4, !tbaa !14
  store i32 %2, ptr %8, align 4, !tbaa !14
  store i32 %3, ptr %9, align 4, !tbaa !14
  %10 = load i32, ptr %7, align 4, !tbaa !14
  %11 = icmp slt i32 %10, 0
  br i1 %11, label %12, label %16

12:                                               ; preds = %4
  %13 = load ptr, ptr %6, align 8, !tbaa !17
  %14 = call i64 @strlen(ptr noundef %13) #15
  %15 = trunc i64 %14 to i32
  store i32 %15, ptr %7, align 4, !tbaa !14
  br label %16

16:                                               ; preds = %12, %4
  %17 = load i32, ptr %7, align 4, !tbaa !14
  %18 = load i32, ptr %8, align 4, !tbaa !14
  %19 = icmp sge i32 %17, %18
  br i1 %19, label %20, label %29

20:                                               ; preds = %16
  %21 = load i32, ptr %7, align 4, !tbaa !14
  %22 = load i32, ptr %9, align 4, !tbaa !14
  %23 = icmp sle i32 %21, %22
  br i1 %23, label %24, label %29

24:                                               ; preds = %20
  %25 = load ptr, ptr %6, align 8, !tbaa !17
  %26 = load i32, ptr %7, align 4, !tbaa !14
  %27 = call noundef zeroext i1 @_ZN12_GLOBAL__N_121_isAlphaNumericStringEPKci(ptr noundef %25, i32 noundef %26)
  br i1 %27, label %28, label %29

28:                                               ; preds = %24
  store i1 true, ptr %5, align 1
  br label %30

29:                                               ; preds = %24, %20, %16
  store i1 false, ptr %5, align 1
  br label %30

30:                                               ; preds = %29, %28
  %31 = load i1, ptr %5, align 1
  ret i1 %31
}

; Function Attrs: mustprogress uwtable
define internal noundef zeroext i1 @_ZN12_GLOBAL__N_116_isVariantSubtagEPKci(ptr noundef %0, i32 noundef %1) #1 {
  %3 = alloca i1, align 1
  %4 = alloca ptr, align 8
  %5 = alloca i32, align 4
  store ptr %0, ptr %4, align 8, !tbaa !17
  store i32 %1, ptr %5, align 4, !tbaa !14
  %6 = load i32, ptr %5, align 4, !tbaa !14
  %7 = icmp slt i32 %6, 0
  br i1 %7, label %8, label %12

8:                                                ; preds = %2
  %9 = load ptr, ptr %4, align 8, !tbaa !17
  %10 = call i64 @strlen(ptr noundef %9) #15
  %11 = trunc i64 %10 to i32
  store i32 %11, ptr %5, align 4, !tbaa !14
  br label %12

12:                                               ; preds = %8, %2
  %13 = load ptr, ptr %4, align 8, !tbaa !17
  %14 = load i32, ptr %5, align 4, !tbaa !14
  %15 = call noundef zeroext i1 @_ZN12_GLOBAL__N_134_isAlphaNumericStringLimitedLengthEPKciii(ptr noundef %13, i32 noundef %14, i32 noundef 5, i32 noundef 8)
  br i1 %15, label %16, label %17

16:                                               ; preds = %12
  store i1 true, ptr %3, align 1
  br label %30

17:                                               ; preds = %12
  %18 = load i32, ptr %5, align 4, !tbaa !14
  %19 = icmp eq i32 %18, 4
  br i1 %19, label %20, label %29

20:                                               ; preds = %17
  %21 = load ptr, ptr %4, align 8, !tbaa !17
  %22 = load i8, ptr %21, align 1, !tbaa !23
  %23 = call noundef zeroext i1 @_ZN12_GLOBAL__N_19ISNUMERICEc(i8 noundef signext %22)
  br i1 %23, label %24, label %29

24:                                               ; preds = %20
  %25 = load ptr, ptr %4, align 8, !tbaa !17
  %26 = getelementptr inbounds i8, ptr %25, i64 1
  %27 = call noundef zeroext i1 @_ZN12_GLOBAL__N_121_isAlphaNumericStringEPKci(ptr noundef %26, i32 noundef 3)
  br i1 %27, label %28, label %29

28:                                               ; preds = %24
  store i1 true, ptr %3, align 1
  br label %30

29:                                               ; preds = %24, %20, %17
  store i1 false, ptr %3, align 1
  br label %30

30:                                               ; preds = %29, %28, %16
  %31 = load i1, ptr %3, align 1
  ret i1 %31
}