; Function Attrs: mustprogress uwtable
define internal fastcc noundef zeroext i1 @_ZN12_GLOBAL__N_116_isVariantSubtagEPKci(ptr noundef readonly captures(none) %0, i32 noundef %1) unnamed_addr #1 {
  %3 = icmp slt i32 %1, 0
  br i1 %3, label %4, label %.thread

4:                                                ; preds = %2
  %5 = tail call i64 @strlen(ptr noundef nonnull dereferenceable(1) %0) #20
  %6 = trunc i64 %5 to i32
  %7 = icmp slt i32 %6, 0
  br i1 %7, label %8, label %.thread

8:                                                ; preds = %4
  %9 = tail call i64 @strlen(ptr noundef nonnull readonly dereferenceable(1) %0) #20
  %10 = trunc i64 %9 to i32
  br label %.thread

.thread:                                          ; preds = %2, %8, %4
  %.011 = phi i32 [ %6, %8 ], [ %6, %4 ], [ %1, %2 ]
  %.08.i = phi i32 [ %10, %8 ], [ %6, %4 ], [ %1, %2 ]
  %11 = add i32 %.08.i, -5
  %or.cond.i = icmp ult i32 %11, 4
  br i1 %or.cond.i, label %12, label %.loopexit

12:                                               ; preds = %.thread
  %wide.trip.count.i.i = zext nneg i32 %.08.i to i64
  br label %13

13:                                               ; preds = %21, %12
  %indvars.iv.i.i = phi i64 [ 0, %12 ], [ %indvars.iv.next.i.i, %21 ]
  %14 = getelementptr inbounds nuw i8, ptr %0, i64 %indvars.iv.i.i
  %15 = load i8, ptr %14, align 1, !tbaa !15
  %16 = tail call noundef signext i8 @uprv_isASCIILetter_77(i8 noundef signext %15)
  %.not.i.i = icmp eq i8 %16, 0
  br i1 %.not.i.i, label %17, label %21

17:                                               ; preds = %13
  %18 = load i8, ptr %14, align 1, !tbaa !15
  %19 = add i8 %18, -48
  %20 = icmp ult i8 %19, 10
  br i1 %20, label %21, label %.loopexit

21:                                               ; preds = %17, %13
  %indvars.iv.next.i.i = add nuw nsw i64 %indvars.iv.i.i, 1
  %exitcond.not.i.i = icmp eq i64 %indvars.iv.next.i.i, %wide.trip.count.i.i
  br i1 %exitcond.not.i.i, label %_ZN12_GLOBAL__N_134_isAlphaNumericStringLimitedLengthEPKciii.exit, label %13, !llvm.loop !20

.loopexit:                                        ; preds = %17, %.thread
  %22 = icmp eq i32 %.011, 4
  br i1 %22, label %23, label %_ZN12_GLOBAL__N_134_isAlphaNumericStringLimitedLengthEPKciii.exit

23:                                               ; preds = %.loopexit
  %24 = load i8, ptr %0, align 1, !tbaa !15
  %25 = add i8 %24, -48
  %26 = icmp ult i8 %25, 10
  br i1 %26, label %27, label %_ZN12_GLOBAL__N_134_isAlphaNumericStringLimitedLengthEPKciii.exit

27:                                               ; preds = %23
  %28 = getelementptr inbounds nuw i8, ptr %0, i64 1
  br label %29

29:                                               ; preds = %37, %27
  %indvars.iv.i = phi i64 [ 0, %27 ], [ %indvars.iv.next.i, %37 ]
  %30 = getelementptr inbounds nuw i8, ptr %28, i64 %indvars.iv.i
  %31 = load i8, ptr %30, align 1, !tbaa !15
  %32 = tail call noundef signext i8 @uprv_isASCIILetter_77(i8 noundef signext %31)
  %.not.i9 = icmp eq i8 %32, 0
  br i1 %.not.i9, label %33, label %37

33:                                               ; preds = %29
  %34 = load i8, ptr %30, align 1, !tbaa !15
  %35 = add i8 %34, -48
  %36 = icmp ult i8 %35, 10
  br i1 %36, label %37, label %_ZN12_GLOBAL__N_134_isAlphaNumericStringLimitedLengthEPKciii.exit

37:                                               ; preds = %33, %29
  %indvars.iv.next.i = add nuw nsw i64 %indvars.iv.i, 1
  %exitcond.not.i = icmp eq i64 %indvars.iv.next.i, 3
  br i1 %exitcond.not.i, label %_ZN12_GLOBAL__N_134_isAlphaNumericStringLimitedLengthEPKciii.exit, label %29, !llvm.loop !20

_ZN12_GLOBAL__N_134_isAlphaNumericStringLimitedLengthEPKciii.exit: ; preds = %21, %37, %33, %.loopexit, %23
  %.07 = phi i1 [ false, %23 ], [ false, %.loopexit ], [ true, %37 ], [ false, %33 ], [ true, %21 ]
  ret i1 %.07
}